target datalayout = "e-m:e-p270:32:32-p271:32:32-p272:64:64-i64:64-i128:128-f80:128-n8:16:32:64-S128"
target triple = "x86_64-pc-linux-gnu"

%struct.opj_tgt_tree = type { i32, i32, i32, ptr, i32 }
%struct.opj_tgt_node = type { ptr, i32, i32, i32 }

@.str = private unnamed_addr constant [38 x i8] c"Not enough memory to create Tag-tree\0A\00", align 1
@.str.1 = private unnamed_addr constant [44 x i8] c"Not enough memory to create Tag-tree nodes\0A\00", align 1

; Function Attrs: nounwind uwtable
define hidden void @opj_tgt_reset(ptr noundef %0) #0 {
  %2 = alloca ptr, align 8
  %3 = alloca i32, align 4
  %4 = alloca ptr, align 8
  %5 = alloca i32, align 4
  store ptr %0, ptr %2, align 8, !tbaa !12
  call void @llvm.lifetime.start.p0(i64 4, ptr %3) #4
  call void @llvm.lifetime.start.p0(i64 8, ptr %4) #4
  store ptr null, ptr %4, align 8, !tbaa !10
  %6 = load ptr, ptr %2, align 8, !tbaa !12
  %7 = icmp ne ptr %6, null
  br i1 %7, label %9, label %8

8:                                                ; preds = %1
  store i32 1, ptr %5, align 4
  br label %32

9:                                                ; preds = %1
  %10 = load ptr, ptr %2, align 8, !tbaa !12
  %11 = getelementptr inbounds nuw %struct.opj_tgt_tree, ptr %10, i32 0, i32 3
  %12 = load ptr, ptr %11, align 8, !tbaa !20
  store ptr %12, ptr %4, align 8, !tbaa !10
  store i32 0, ptr %3, align 4, !tbaa !3
  br label %13

13:                                               ; preds = %28, %9
  %14 = load i32, ptr %3, align 4, !tbaa !3
  %15 = load ptr, ptr %2, align 8, !tbaa !12
  %16 = getelementptr inbounds nuw %struct.opj_tgt_tree, ptr %15, i32 0, i32 2
  %17 = load i32, ptr %16, align 8, !tbaa !17
  %18 = icmp ult i32 %14, %17
  br i1 %18, label %19, label %31

19:                                               ; preds = %13
  %20 = load ptr, ptr %4, align 8, !tbaa !10
  %21 = getelementptr inbounds nuw %struct.opj_tgt_node, ptr %20, i32 0, i32 1
  store i32 999, ptr %21, align 8, !tbaa !27
  %22 = load ptr, ptr %4, align 8, !tbaa !10
  %23 = getelementptr inbounds nuw %struct.opj_tgt_node, ptr %22, i32 0, i32 2
  store i32 0, ptr %23, align 4, !tbaa !28
  %24 = load ptr, ptr %4, align 8, !tbaa !10
  %25 = getelementptr inbounds nuw %struct.opj_tgt_node, ptr %24, i32 0, i32 3
  store i32 0, ptr %25, align 8, !tbaa !29
  %26 = load ptr, ptr %4, align 8, !tbaa !10
  %27 = getelementptr inbounds nuw %struct.opj_tgt_node, ptr %26, i32 1
  store ptr %27, ptr %4, align 8, !tbaa !10
  br label %28

28:                                               ; preds = %19
  %29 = load i32, ptr %3, align 4, !tbaa !3
  %30 = add i32 %29, 1
  store i32 %30, ptr %3, align 4, !tbaa !3
  br label %13, !llvm.loop !30

31:                                               ; preds = %13
  store i32 0, ptr %5, align 4
  br label %32

32:                                               ; preds = %31, %8
  call void @llvm.lifetime.end.p0(i64 8, ptr %4) #4
  call void @llvm.lifetime.end.p0(i64 4, ptr %3) #4
  %33 = load i32, ptr %5, align 4
  switch i32 %33, label %35 [
    i32 0, label %34
    i32 1, label %34
  ]

34:                                               ; preds = %32, %32
  ret void

35:                                               ; preds = %32
  unreachable
}

; Function Attrs: nounwind uwtable
define hidden ptr @opj_tgt_create(i32 noundef %0, i32 noundef %1, ptr noundef %2) #0 {
  %4 = alloca ptr, align 8
  %5 = alloca i32, align 4
  %6 = alloca i32, align 4
  %7 = alloca ptr, align 8
  %8 = alloca [32 x i32], align 16
  %9 = alloca [32 x i32], align 16
  %10 = alloca ptr, align 8
  %11 = alloca ptr, align 8
  %12 = alloca ptr, align 8
  %13 = alloca ptr, align 8
  %14 = alloca i32, align 4
  %15 = alloca i32, align 4
  %16 = alloca i32, align 4
  %17 = alloca i32, align 4
  %18 = alloca i32, align 4
  %19 = alloca i32, align 4
  store i32 %0, ptr %5, align 4, !tbaa !3
  store i32 %1, ptr %6, align 4, !tbaa !3
  store ptr %2, ptr %7, align 8, !tbaa !7
  call void @llvm.lifetime.start.p0(i64 128, ptr %8) #4
  call void @llvm.lifetime.start.p0(i64 128, ptr %9) #4
  call void @llvm.lifetime.start.p0(i64 8, ptr %10) #4
  store ptr null, ptr %10, align 8, !tbaa !10
  call void @llvm.lifetime.start.p0(i64 8, ptr %11) #4
  store ptr null, ptr %11, align 8, !tbaa !10
  call void @llvm.lifetime.start.p0(i64 8, ptr %12) #4
  store ptr null, ptr %12, align 8, !tbaa !10
  call void @llvm.lifetime.start.p0(i64 8, ptr %13) #4
  store ptr null, ptr %13, align 8, !tbaa !12
  call void @llvm.lifetime.start.p0(i64 4, ptr %14) #4
  call void @llvm.lifetime.start.p0(i64 4, ptr %15) #4
  call void @llvm.lifetime.start.p0(i64 4, ptr %16) #4
  call void @llvm.lifetime.start.p0(i64 4, ptr %17) #4
  call void @llvm.lifetime.start.p0(i64 4, ptr %18) #4
  %20 = call ptr @opj_calloc(i64 noundef 1, i64 noundef 32)
  store ptr %20, ptr %13, align 8, !tbaa !12
  %21 = load ptr, ptr %13, align 8, !tbaa !12
  %22 = icmp ne ptr %21, null
  br i1 %22, label %26, label %23

23:                                               ; preds = %3
  %24 = load ptr, ptr %7, align 8, !tbaa !7
  %25 = call i32 (ptr, i32, ptr, ...) @opj_event_msg(ptr noundef %24, i32 noundef 1, ptr noundef @.str)
  store ptr null, ptr %4, align 8
  store i32 1, ptr %19, align 4
  br label %201

26:                                               ; preds = %3
  %27 = load i32, ptr %5, align 4, !tbaa !3
  %28 = load ptr, ptr %13, align 8, !tbaa !12
  %29 = getelementptr inbounds nuw %struct.opj_tgt_tree, ptr %28, i32 0, i32 0
  store i32 %27, ptr %29, align 8, !tbaa !14
  %30 = load i32, ptr %6, align 4, !tbaa !3
  %31 = load ptr, ptr %13, align 8, !tbaa !12
  %32 = getelementptr inbounds nuw %struct.opj_tgt_tree, ptr %31, i32 0, i32 1
  store i32 %30, ptr %32, align 4, !tbaa !16
  store i32 0, ptr %17, align 4, !tbaa !3
  %33 = load i32, ptr %5, align 4, !tbaa !3
  %34 = getelementptr inbounds [32 x i32], ptr %8, i64 0, i64 0
  store i32 %33, ptr %34, align 16, !tbaa !3
  %35 = load i32, ptr %6, align 4, !tbaa !3
  %36 = getelementptr inbounds [32 x i32], ptr %9, i64 0, i64 0
  store i32 %35, ptr %36, align 16, !tbaa !3
  %37 = load ptr, ptr %13, align 8, !tbaa !12
  %38 = getelementptr inbounds nuw %struct.opj_tgt_tree, ptr %37, i32 0, i32 2
  store i32 0, ptr %38, align 8, !tbaa !17
  br label %39

39:                                               ; preds = %76, %26
  %40 = load i32, ptr %17, align 4, !tbaa !3
  %41 = zext i32 %40 to i64
  %42 = getelementptr inbounds nuw [32 x i32], ptr %8, i64 0, i64 %41
  %43 = load i32, ptr %42, align 4, !tbaa !3
  %44 = load i32, ptr %17, align 4, !tbaa !3
  %45 = zext i32 %44 to i64
  %46 = getelementptr inbounds nuw [32 x i32], ptr %9, i64 0, i64 %45
  %47 = load i32, ptr %46, align 4, !tbaa !3
  %48 = mul nsw i32 %43, %47
  store i32 %48, ptr %18, align 4, !tbaa !3
  %49 = load i32, ptr %17, align 4, !tbaa !3
  %50 = zext i32 %49 to i64
  %51 = getelementptr inbounds nuw [32 x i32], ptr %8, i64 0, i64 %50
  %52 = load i32, ptr %51, align 4, !tbaa !3
  %53 = add nsw i32 %52, 1
  %54 = sdiv i32 %53, 2
  %55 = load i32, ptr %17, align 4, !tbaa !3
  %56 = add i32 %55, 1
  %57 = zext i32 %56 to i64
  %58 = getelementptr inbounds nuw [32 x i32], ptr %8, i64 0, i64 %57
  store i32 %54, ptr %58, align 4, !tbaa !3
  %59 = load i32, ptr %17, align 4, !tbaa !3
  %60 = zext i32 %59 to i64
  %61 = getelementptr inbounds nuw [32 x i32], ptr %9, i64 0, i64 %60
  %62 = load i32, ptr %61, align 4, !tbaa !3
  %63 = add nsw i32 %62, 1
  %64 = sdiv i32 %63, 2
  %65 = load i32, ptr %17, align 4, !tbaa !3
  %66 = add i32 %65, 1
  %67 = zext i32 %66 to i64
  %68 = getelementptr inbounds nuw [32 x i32], ptr %9, i64 0, i64 %67
  store i32 %64, ptr %68, align 4, !tbaa !3
  %69 = load i32, ptr %18, align 4, !tbaa !3
  %70 = load ptr, ptr %13, align 8, !tbaa !12
  %71 = getelementptr inbounds nuw %struct.opj_tgt_tree, ptr %70, i32 0, i32 2
  %72 = load i32, ptr %71, align 8, !tbaa !17
  %73 = add i32 %72, %69
  store i32 %73, ptr %71, align 8, !tbaa !17
  %74 = load i32, ptr %17, align 4, !tbaa !3
  %75 = add i32 %74, 1
  store i32 %75, ptr %17, align 4, !tbaa !3
  br label %76

76:                                               ; preds = %39
  %77 = load i32, ptr %18, align 4, !tbaa !3
  %78 = icmp ugt i32 %77, 1
  br i1 %78, label %39, label %79, !llvm.loop !18

79:                                               ; preds = %76
  %80 = load ptr, ptr %13, align 8, !tbaa !12
  %81 = getelementptr inbounds nuw %struct.opj_tgt_tree, ptr %80, i32 0, i32 2
  %82 = load i32, ptr %81, align 8, !tbaa !17
  %83 = icmp eq i32 %82, 0
  br i1 %83, label %84, label %86

84:                                               ; preds = %79
  %85 = load ptr, ptr %13, align 8, !tbaa !12
  call void @opj_free(ptr noundef %85)
  store ptr null, ptr %4, align 8
  store i32 1, ptr %19, align 4
  br label %201

86:                                               ; preds = %79
  %87 = load ptr, ptr %13, align 8, !tbaa !12
  %88 = getelementptr inbounds nuw %struct.opj_tgt_tree, ptr %87, i32 0, i32 2
  %89 = load i32, ptr %88, align 8, !tbaa !17
  %90 = zext i32 %89 to i64
  %91 = call ptr @opj_calloc(i64 noundef %90, i64 noundef 24)
  %92 = load ptr, ptr %13, align 8, !tbaa !12
  %93 = getelementptr inbounds nuw %struct.opj_tgt_tree, ptr %92, i32 0, i32 3
  store ptr %91, ptr %93, align 8, !tbaa !20
  %94 = load ptr, ptr %13, align 8, !tbaa !12
  %95 = getelementptr inbounds nuw %struct.opj_tgt_tree, ptr %94, i32 0, i32 3
  %96 = load ptr, ptr %95, align 8, !tbaa !20
  %97 = icmp ne ptr %96, null
  br i1 %97, label %102, label %98

98:                                               ; preds = %86
  %99 = load ptr, ptr %7, align 8, !tbaa !7
  %100 = call i32 (ptr, i32, ptr, ...) @opj_event_msg(ptr noundef %99, i32 noundef 1, ptr noundef @.str.1)
  %101 = load ptr, ptr %13, align 8, !tbaa !12
  call void @opj_free(ptr noundef %101)
  store ptr null, ptr %4, align 8
  store i32 1, ptr %19, align 4
  br label %201

102:                                              ; preds = %86
  %103 = load ptr, ptr %13, align 8, !tbaa !12
  %104 = getelementptr inbounds nuw %struct.opj_tgt_tree, ptr %103, i32 0, i32 2
  %105 = load i32, ptr %104, align 8, !tbaa !17
  %106 = mul i32 %105, 24
  %107 = load ptr, ptr %13, align 8, !tbaa !12
  %108 = getelementptr inbounds nuw %struct.opj_tgt_tree, ptr %107, i32 0, i32 4
  store i32 %106, ptr %108, align 8, !tbaa !21
  %109 = load ptr, ptr %13, align 8, !tbaa !12
  %110 = getelementptr inbounds nuw %struct.opj_tgt_tree, ptr %109, i32 0, i32 3
  %111 = load ptr, ptr %110, align 8, !tbaa !20
  store ptr %111, ptr %10, align 8, !tbaa !10
  %112 = load ptr, ptr %13, align 8, !tbaa !12
  %113 = getelementptr inbounds nuw %struct.opj_tgt_tree, ptr %112, i32 0, i32 3
  %114 = load ptr, ptr %113, align 8, !tbaa !20
  %115 = load ptr, ptr %13, align 8, !tbaa !12
  %116 = getelementptr inbounds nuw %struct.opj_tgt_tree, ptr %115, i32 0, i32 0
  %117 = load i32, ptr %116, align 8, !tbaa !14
  %118 = load ptr, ptr %13, align 8, !tbaa !12
  %119 = getelementptr inbounds nuw %struct.opj_tgt_tree, ptr %118, i32 0, i32 1
  %120 = load i32, ptr %119, align 4, !tbaa !16
  %121 = mul i32 %117, %120
  %122 = zext i32 %121 to i64
  %123 = getelementptr inbounds nuw %struct.opj_tgt_node, ptr %114, i64 %122
  store ptr %123, ptr %11, align 8, !tbaa !10
  %124 = load ptr, ptr %11, align 8, !tbaa !10
  store ptr %124, ptr %12, align 8, !tbaa !10
  store i32 0, ptr %14, align 4, !tbaa !3
  br label %125

125:                                              ; preds = %193, %102
  %126 = load i32, ptr %14, align 4, !tbaa !3
  %127 = load i32, ptr %17, align 4, !tbaa !3
  %128 = sub i32 %127, 1
  %129 = icmp ult i32 %126, %128
  br i1 %129, label %130, label %196

130:                                              ; preds = %125
  store i32 0, ptr %15, align 4, !tbaa !3
  br label %131

131:                                              ; preds = %189, %130
  %132 = load i32, ptr %15, align 4, !tbaa !3
  %133 = load i32, ptr %14, align 4, !tbaa !3
  %134 = zext i32 %133 to i64
  %135 = getelementptr inbounds nuw [32 x i32], ptr %9, i64 0, i64 %134
  %136 = load i32, ptr %135, align 4, !tbaa !3
  %137 = icmp slt i32 %132, %136
  br i1 %137, label %138, label %192

138:                                              ; preds = %131
  %139 = load i32, ptr %14, align 4, !tbaa !3
  %140 = zext i32 %139 to i64
  %141 = getelementptr inbounds nuw [32 x i32], ptr %8, i64 0, i64 %140
  %142 = load i32, ptr %141, align 4, !tbaa !3
  store i32 %142, ptr %16, align 4, !tbaa !3
  br label %143

143:                                              ; preds = %162, %138
  %144 = load i32, ptr %16, align 4, !tbaa !3
  %145 = add nsw i32 %144, -1
  store i32 %145, ptr %16, align 4, !tbaa !3
  %146 = icmp sge i32 %145, 0
  br i1 %146, label %147, label %165

147:                                              ; preds = %143
  %148 = load ptr, ptr %11, align 8, !tbaa !10
  %149 = load ptr, ptr %10, align 8, !tbaa !10
  %150 = getelementptr inbounds nuw %struct.opj_tgt_node, ptr %149, i32 0, i32 0
  store ptr %148, ptr %150, align 8, !tbaa !22
  %151 = load ptr, ptr %10, align 8, !tbaa !10
  %152 = getelementptr inbounds nuw %struct.opj_tgt_node, ptr %151, i32 1
  store ptr %152, ptr %10, align 8, !tbaa !10
  %153 = load i32, ptr %16, align 4, !tbaa !3
  %154 = add nsw i32 %153, -1
  store i32 %154, ptr %16, align 4, !tbaa !3
  %155 = icmp sge i32 %154, 0
  br i1 %155, label %156, label %162

156:                                              ; preds = %147
  %157 = load ptr, ptr %11, align 8, !tbaa !10
  %158 = load ptr, ptr %10, align 8, !tbaa !10
  %159 = getelementptr inbounds nuw %struct.opj_tgt_node, ptr %158, i32 0, i32 0
  store ptr %157, ptr %159, align 8, !tbaa !22
  %160 = load ptr, ptr %10, align 8, !tbaa !10
  %161 = getelementptr inbounds nuw %struct.opj_tgt_node, ptr %160, i32 1
  store ptr %161, ptr %10, align 8, !tbaa !10
  br label %162

162:                                              ; preds = %156, %147
  %163 = load ptr, ptr %11, align 8, !tbaa !10
  %164 = getelementptr inbounds nuw %struct.opj_tgt_node, ptr %163, i32 1
  store ptr %164, ptr %11, align 8, !tbaa !10
  br label %143, !llvm.loop !24

165:                                              ; preds = %143
  %166 = load i32, ptr %15, align 4, !tbaa !3
  %167 = and i32 %166, 1
  %168 = icmp ne i32 %167, 0
  br i1 %168, label %177, label %169

169:                                              ; preds = %165
  %170 = load i32, ptr %15, align 4, !tbaa !3
  %171 = load i32, ptr %14, align 4, !tbaa !3
  %172 = zext i32 %171 to i64
  %173 = getelementptr inbounds nuw [32 x i32], ptr %9, i64 0, i64 %172
  %174 = load i32, ptr %173, align 4, !tbaa !3
  %175 = sub nsw i32 %174, 1
  %176 = icmp eq i32 %170, %175
  br i1 %176, label %177, label %179

177:                                              ; preds = %169, %165
  %178 = load ptr, ptr %11, align 8, !tbaa !10
  store ptr %178, ptr %12, align 8, !tbaa !10
  br label %188

179:                                              ; preds = %169
  %180 = load ptr, ptr %12, align 8, !tbaa !10
  store ptr %180, ptr %11, align 8, !tbaa !10
  %181 = load i32, ptr %14, align 4, !tbaa !3
  %182 = zext i32 %181 to i64
  %183 = getelementptr inbounds nuw [32 x i32], ptr %8, i64 0, i64 %182
  %184 = load i32, ptr %183, align 4, !tbaa !3
  %185 = load ptr, ptr %12, align 8, !tbaa !10
  %186 = sext i32 %184 to i64
  %187 = getelementptr inbounds %struct.opj_tgt_node, ptr %185, i64 %186
  store ptr %187, ptr %12, align 8, !tbaa !10
  br label %188

188:                                              ; preds = %179, %177
  br label %189

189:                                              ; preds = %188
  %190 = load i32, ptr %15, align 4, !tbaa !3
  %191 = add nsw i32 %190, 1
  store i32 %191, ptr %15, align 4, !tbaa !3
  br label %131, !llvm.loop !25

192:                                              ; preds = %131
  br label %193

193:                                              ; preds = %192
  %194 = load i32, ptr %14, align 4, !tbaa !3
  %195 = add i32 %194, 1
  store i32 %195, ptr %14, align 4, !tbaa !3
  br label %125, !llvm.loop !26

196:                                              ; preds = %125
  %197 = load ptr, ptr %10, align 8, !tbaa !10
  %198 = getelementptr inbounds nuw %struct.opj_tgt_node, ptr %197, i32 0, i32 0
  store ptr null, ptr %198, align 8, !tbaa !22
  %199 = load ptr, ptr %13, align 8, !tbaa !12
  call void @opj_tgt_reset(ptr noundef %199)
  %200 = load ptr, ptr %13, align 8, !tbaa !12
  store ptr %200, ptr %4, align 8
  store i32 1, ptr %19, align 4
  br label %201

201:                                              ; preds = %196, %98, %84, %23
  call void @llvm.lifetime.end.p0(i64 4, ptr %18) #4
  call void @llvm.lifetime.end.p0(i64 4, ptr %17) #4
  call void @llvm.lifetime.end.p0(i64 4, ptr %16) #4
  call void @llvm.lifetime.end.p0(i64 4, ptr %15) #4
  call void @llvm.lifetime.end.p0(i64 4, ptr %14) #4
  call void @llvm.lifetime.end.p0(i64 8, ptr %13) #4
  call void @llvm.lifetime.end.p0(i64 8, ptr %12) #4
  call void @llvm.lifetime.end.p0(i64 8, ptr %11) #4
  call void @llvm.lifetime.end.p0(i64 8, ptr %10) #4
  call void @llvm.lifetime.end.p0(i64 128, ptr %9) #4
  call void @llvm.lifetime.end.p0(i64 128, ptr %8) #4
  %202 = load ptr, ptr %4, align 8
  ret ptr %202
}