; Function Attrs: nounwind uwtable
define hidden ptr @opj_tgt_create(i32 noundef %0, i32 noundef %1, ptr noundef %2) local_unnamed_addr #0 {
  %4 = alloca [32 x i32], align 16
  %5 = alloca [32 x i32], align 16
  call void @llvm.lifetime.start.p0(i64 128, ptr nonnull %4) #6
  call void @llvm.lifetime.start.p0(i64 128, ptr nonnull %5) #6
  %6 = tail call ptr @opj_calloc(i64 noundef 1, i64 noundef 32) #6
  %.not = icmp eq ptr %6, null
  br i1 %.not, label %7, label %9

7:                                                ; preds = %3
  %8 = tail call i32 (ptr, i32, ptr, ...) @opj_event_msg(ptr noundef %2, i32 noundef 1, ptr noundef nonnull @.str) #6
  br label %opj_tgt_reset.exit

9:                                                ; preds = %3
  store i32 %0, ptr %6, align 8, !tbaa !3
  %10 = getelementptr inbounds nuw i8, ptr %6, i64 4
  store i32 %1, ptr %10, align 4, !tbaa !10
  store i32 %0, ptr %4, align 16, !tbaa !11
  store i32 %1, ptr %5, align 16, !tbaa !11
  %11 = getelementptr inbounds nuw i8, ptr %6, i64 8
  br label %12

12:                                               ; preds = %12, %9
  %13 = phi i32 [ %1, %9 ], [ %23, %12 ]
  %14 = phi i32 [ %0, %9 ], [ %18, %12 ]
  %15 = phi i32 [ 0, %9 ], [ %25, %12 ]
  %.059 = phi i32 [ 0, %9 ], [ %19, %12 ]
  %16 = mul nsw i32 %13, %14
  %17 = add nsw i32 %14, 1
  %18 = sdiv i32 %17, 2
  %19 = add i32 %.059, 1
  %20 = zext i32 %19 to i64
  %21 = getelementptr inbounds nuw [32 x i32], ptr %4, i64 0, i64 %20
  store i32 %18, ptr %21, align 4, !tbaa !11
  %22 = add nsw i32 %13, 1
  %23 = sdiv i32 %22, 2
  %24 = getelementptr inbounds nuw [32 x i32], ptr %5, i64 0, i64 %20
  store i32 %23, ptr %24, align 4, !tbaa !11
  %25 = add i32 %15, %16
  %26 = icmp ugt i32 %16, 1
  br i1 %26, label %12, label %27, !llvm.loop !12

27:                                               ; preds = %12
  %28 = zext i32 %.059 to i64
  store i32 %25, ptr %11, align 8, !tbaa !14
  %29 = icmp eq i32 %25, 0
  br i1 %29, label %30, label %31

30:                                               ; preds = %27
  tail call void @opj_free(ptr noundef nonnull %6) #6
  br label %opj_tgt_reset.exit

31:                                               ; preds = %27
  %32 = zext i32 %25 to i64
  %33 = tail call ptr @opj_calloc(i64 noundef %32, i64 noundef 24) #6
  %34 = getelementptr inbounds nuw i8, ptr %6, i64 16
  store ptr %33, ptr %34, align 8, !tbaa !15
  %.not74 = icmp eq ptr %33, null
  br i1 %.not74, label %35, label %37

35:                                               ; preds = %31
  %36 = tail call i32 (ptr, i32, ptr, ...) @opj_event_msg(ptr noundef %2, i32 noundef 1, ptr noundef nonnull @.str.1) #6
  tail call void @opj_free(ptr noundef nonnull %6) #6
  br label %opj_tgt_reset.exit

37:                                               ; preds = %31
  %38 = load i32, ptr %11, align 8, !tbaa !14
  %39 = mul i32 %38, 24
  %40 = getelementptr inbounds nuw i8, ptr %6, i64 24
  store i32 %39, ptr %40, align 8, !tbaa !16
  %.not98 = icmp eq i32 %.059, 0
  br i1 %.not98, label %._crit_edge, label %.preheader.preheader

.preheader.preheader:                             ; preds = %37
  %41 = load i32, ptr %10, align 4, !tbaa !10
  %42 = load i32, ptr %6, align 8, !tbaa !3
  %43 = mul i32 %41, %42
  %44 = zext i32 %43 to i64
  %45 = getelementptr inbounds nuw %struct.opj_tgt_node, ptr %33, i64 %44
  br label %.preheader

.preheader:                                       ; preds = %.preheader.preheader, %._crit_edge88
  %indvars.iv = phi i64 [ 0, %.preheader.preheader ], [ %indvars.iv.next, %._crit_edge88 ]
  %.06396 = phi ptr [ %45, %.preheader.preheader ], [ %.1.lcssa, %._crit_edge88 ]
  %.06495 = phi ptr [ %45, %.preheader.preheader ], [ %.165.lcssa, %._crit_edge88 ]
  %.06794 = phi ptr [ %33, %.preheader.preheader ], [ %.168.lcssa, %._crit_edge88 ]
  %46 = getelementptr inbounds nuw [32 x i32], ptr %5, i64 0, i64 %indvars.iv
  %47 = load i32, ptr %46, align 4, !tbaa !11
  %48 = icmp sgt i32 %47, 0
  br i1 %48, label %.lr.ph87, label %._crit_edge88

.lr.ph87:                                         ; preds = %.preheader
  %49 = getelementptr inbounds nuw [32 x i32], ptr %4, i64 0, i64 %indvars.iv
  %50 = load i32, ptr %49, align 4, !tbaa !11
  %51 = icmp sgt i32 %50, 0
  %52 = add nsw i32 %47, -1
  %53 = sext i32 %50 to i64
  br i1 %51, label %.lr.ph.us, label %.lr.ph87.split

.lr.ph.us:                                        ; preds = %.lr.ph87, %._crit_edge.us
  %.06186.us = phi i32 [ %66, %._crit_edge.us ], [ 0, %.lr.ph87 ]
  %.185.us = phi ptr [ %.2.us, %._crit_edge.us ], [ %.06396, %.lr.ph87 ]
  %.16584.us = phi ptr [ %.3.us, %._crit_edge.us ], [ %.06495, %.lr.ph87 ]
  %.16883.us = phi ptr [ %.370.us106, %._crit_edge.us ], [ %.06794, %.lr.ph87 ]
  br label %54

54:                                               ; preds = %.lr.ph.us, %57
  %.06081.us = phi i32 [ %50, %.lr.ph.us ], [ %58, %57 ]
  %.26680.us = phi ptr [ %.16584.us, %.lr.ph.us ], [ %60, %57 ]
  %.26979.us = phi ptr [ %.16883.us, %.lr.ph.us ], [ %59, %57 ]
  store ptr %.26680.us, ptr %.26979.us, align 8, !tbaa !17
  %55 = getelementptr inbounds nuw i8, ptr %.26979.us, i64 24
  %.not76.us = icmp eq i32 %.06081.us, 1
  br i1 %.not76.us, label %.thread, label %57

.thread:                                          ; preds = %54
  %56 = getelementptr inbounds nuw i8, ptr %.26680.us, i64 24
  br label %._crit_edge.us

57:                                               ; preds = %54
  %58 = add nsw i32 %.06081.us, -2
  store ptr %.26680.us, ptr %55, align 8, !tbaa !17
  %59 = getelementptr inbounds nuw i8, ptr %.26979.us, i64 48
  %60 = getelementptr inbounds nuw i8, ptr %.26680.us, i64 24
  %61 = icmp sgt i32 %.06081.us, 2
  br i1 %61, label %54, label %._crit_edge.us, !llvm.loop !19

._crit_edge.us:                                   ; preds = %57, %.thread
  %62 = phi ptr [ %56, %.thread ], [ %60, %57 ]
  %.370.us106 = phi ptr [ %55, %.thread ], [ %59, %57 ]
  %63 = and i32 %.06186.us, 1
  %.not75.us = icmp ne i32 %63, 0
  %64 = icmp eq i32 %.06186.us, %52
  %or.cond.us = select i1 %.not75.us, i1 true, i1 %64
  %65 = getelementptr inbounds nuw %struct.opj_tgt_node, ptr %.185.us, i64 %53
  %.3.us = select i1 %or.cond.us, ptr %62, ptr %.185.us
  %.2.us = select i1 %or.cond.us, ptr %62, ptr %65
  %66 = add nuw nsw i32 %.06186.us, 1
  %exitcond101.not = icmp eq i32 %66, %47
  br i1 %exitcond101.not, label %._crit_edge88, label %.lr.ph.us, !llvm.loop !20

.lr.ph87.split:                                   ; preds = %.lr.ph87, %.lr.ph87.split
  %.06186 = phi i32 [ %70, %.lr.ph87.split ], [ 0, %.lr.ph87 ]
  %.185 = phi ptr [ %.2, %.lr.ph87.split ], [ %.06396, %.lr.ph87 ]
  %.16584 = phi ptr [ %.3, %.lr.ph87.split ], [ %.06495, %.lr.ph87 ]
  %67 = and i32 %.06186, 1
  %.not75 = icmp ne i32 %67, 0
  %68 = icmp eq i32 %.06186, %52
  %or.cond = select i1 %.not75, i1 true, i1 %68
  %69 = getelementptr inbounds %struct.opj_tgt_node, ptr %.185, i64 %53
  %.3 = select i1 %or.cond, ptr %.16584, ptr %.185
  %.2 = select i1 %or.cond, ptr %.16584, ptr %69
  %70 = add nuw nsw i32 %.06186, 1
  %exitcond.not = icmp eq i32 %70, %47
  br i1 %exitcond.not, label %._crit_edge88, label %.lr.ph87.split, !llvm.loop !20

._crit_edge88:                                    ; preds = %.lr.ph87.split, %._crit_edge.us, %.preheader
  %.168.lcssa = phi ptr [ %.06794, %.preheader ], [ %.370.us106, %._crit_edge.us ], [ %.06794, %.lr.ph87.split ]
  %.165.lcssa = phi ptr [ %.06495, %.preheader ], [ %.3.us, %._crit_edge.us ], [ %.3, %.lr.ph87.split ]
  %.1.lcssa = phi ptr [ %.06396, %.preheader ], [ %.2.us, %._crit_edge.us ], [ %.2, %.lr.ph87.split ]
  %indvars.iv.next = add nuw nsw i64 %indvars.iv, 1
  %exitcond104.not = icmp eq i64 %indvars.iv.next, %28
  br i1 %exitcond104.not, label %._crit_edge, label %.preheader, !llvm.loop !21

._crit_edge:                                      ; preds = %._crit_edge88, %37
  %.067.lcssa = phi ptr [ %33, %37 ], [ %.168.lcssa, %._crit_edge88 ]
  store ptr null, ptr %.067.lcssa, align 8, !tbaa !17
  %.not12.i = icmp eq i32 %38, 0
  br i1 %.not12.i, label %opj_tgt_reset.exit, label %.lr.ph.i

.lr.ph.i:                                         ; preds = %._crit_edge, %.lr.ph.i
  %.011.i = phi ptr [ %74, %.lr.ph.i ], [ %33, %._crit_edge ]
  %.0810.i = phi i32 [ %75, %.lr.ph.i ], [ 0, %._crit_edge ]
  %71 = getelementptr inbounds nuw i8, ptr %.011.i, i64 8
  store i32 999, ptr %71, align 8, !tbaa !22
  %72 = getelementptr inbounds nuw i8, ptr %.011.i, i64 12
  store i32 0, ptr %72, align 4, !tbaa !23
  %73 = getelementptr inbounds nuw i8, ptr %.011.i, i64 16
  store i32 0, ptr %73, align 8, !tbaa !24
  %74 = getelementptr inbounds nuw i8, ptr %.011.i, i64 24
  %75 = add nuw i32 %.0810.i, 1
  %exitcond.not.i = icmp eq i32 %75, %38
  br i1 %exitcond.not.i, label %opj_tgt_reset.exit, label %.lr.ph.i, !llvm.loop !25

opj_tgt_reset.exit:                               ; preds = %.lr.ph.i, %._crit_edge, %35, %30, %7
  %.0 = phi ptr [ null, %30 ], [ null, %35 ], [ null, %7 ], [ %6, %._crit_edge ], [ %6, %.lr.ph.i ]
  call void @llvm.lifetime.end.p0(i64 128, ptr nonnull %5) #6
  call void @llvm.lifetime.end.p0(i64 128, ptr nonnull %4) #6
  ret ptr %.0
}